target datalayout = "e-m:e-p270:32:32-p271:32:32-p272:64:64-i64:64-i128:128-f80:128-n8:16:32:64-S128"
target triple = "x86_64-pc-linux-gnu"

%class.RegMask = type { %union.anon, i32, i32 }
%union.anon = type { [11 x i64] }
%class.MultiNode.base = type { %class.Node.base }
%class.Node.base = type <{ ptr, ptr, ptr, i32, i32, i32, i32, i32, i32, i32 }>
%class.Phase = type { i32, ptr }
%class.Arena = type { i8, i8, i64, ptr, ptr, ptr, ptr }
%class.VectorSet = type { i32, ptr, i32, ptr }
%class.Node = type <{ ptr, ptr, ptr, i32, i32, i32, i32, i32, i32, i32, [4 x i8] }>
%class.JVMState = type { ptr, i32, i32, i32, i32, i32, i32, i32, i32, i32, ptr, ptr }
%class.ReplacedNodes = type { ptr }
%class.CallNode = type { %class.SafePointNode.base, ptr, ptr, float, ptr, ptr }
%class.SafePointNode.base = type <{ %class.MultiNode.base, [4 x i8], ptr, ptr, %class.ReplacedNodes, i8 }>
%class.Compile = type <{ %class.Phase, i32, %class.Options, [4 x i8], ptr, i32, [4 x i8], ptr, ptr, ptr, ptr, ptr, i32, i32, i32, [4 x i8], i64, i8, i8, [2 x i8], i32, i8, i8, i8, i8, i8, i8, i8, i8, i8, [3 x i8], i32, i8, [3 x i8], [30 x i32], i8, [3 x i8], i32, i8, i8, i8, i8, i8, i8, i8, i8, i8, i8, i8, i8, i8, [3 x i8], i32, i32, [4 x i8], %class.Arena, ptr, ptr, ptr, ptr, %class.CHeapStringHolder, ptr, %class.GrowableArray, %class.GrowableArray.0, %class.GrowableArray.3, %class.GrowableArray.0, %class.GrowableArray.0, %class.GrowableArray.0, %class.GrowableArray.6, %class.GrowableArray.9, ptr, i32, i32, %class.VectorSet, %class.Arena, %class.Arena, ptr, ptr, ptr, ptr, ptr, ptr, ptr, ptr, ptr, %class.Arena, ptr, ptr, %class.CloneMap, i64, ptr, ptr, ptr, i32, i32, [64 x %"struct.Compile::AliasCacheEntry"], ptr, ptr, ptr, ptr, %class.GrowableArray, %class.GrowableArray, %class.GrowableArray, %class.GrowableArray, i32, i32, i8, [7 x i8], ptr, ptr, i32, [4 x i8], ptr, ptr, ptr, i32, i32, ptr, ptr, %class.RegMask, ptr, ptr, i32, [4 x i8], ptr, %class.TimeInstant, i32, [4 x i8] }>
%class.Options = type { i8, i8, i8, i8, i8, i8, i8, i8 }
%class.CHeapStringHolder = type { ptr }
%class.GrowableArray.3 = type { %class.GrowableArrayWithAllocator.4, %class.GrowableArrayMetadata }
%class.GrowableArrayWithAllocator.4 = type { %class.GrowableArrayView.5 }
%class.GrowableArrayView.5 = type { %class.GrowableArrayBase, ptr }
%class.GrowableArrayBase = type { i32, i32 }
%class.GrowableArrayMetadata = type { i64 }
%class.GrowableArray.0 = type { %class.GrowableArrayWithAllocator.1, %class.GrowableArrayMetadata }
%class.GrowableArrayWithAllocator.1 = type { %class.GrowableArrayView.2 }
%class.GrowableArrayView.2 = type { %class.GrowableArrayBase, ptr }
%class.GrowableArray.6 = type { %class.GrowableArrayWithAllocator.7, %class.GrowableArrayMetadata }
%class.GrowableArrayWithAllocator.7 = type { %class.GrowableArrayView.8 }
%class.GrowableArrayView.8 = type { %class.GrowableArrayBase, ptr }
%class.GrowableArray.9 = type { %class.GrowableArrayWithAllocator.10, %class.GrowableArrayMetadata }
%class.GrowableArrayWithAllocator.10 = type { %class.GrowableArrayView.11 }
%class.GrowableArrayView.11 = type { %class.GrowableArrayBase, ptr }
%class.CloneMap = type <{ i8, [7 x i8], ptr, i32, [4 x i8] }>
%"struct.Compile::AliasCacheEntry" = type { ptr, i32 }
%class.GrowableArray = type { %class.GrowableArrayWithAllocator, %class.GrowableArrayMetadata }
%class.GrowableArrayWithAllocator = type { %class.GrowableArrayView }
%class.GrowableArrayView = type { %class.GrowableArrayBase, ptr }
%class.TimeInstant = type { %class.CompositeCounterRepresentation }
%class.CompositeCounterRepresentation = type { %class.Representation }
%class.Representation = type { %class.PairRep }
%class.PairRep = type { i64, i64 }
%class.AbstractLockNode = type <{ %class.CallNode, i32, [4 x i8] }>

@_ZN16AbstractLockNode11_kind_namesE = hidden global [4 x ptr] [ptr @.str.15, ptr @.str.16, ptr @.str.17, ptr @.str.18], align 16
@.str.19 = private unnamed_addr constant [89 x i8] c"%s compile_id='%d' lock_id='%d' class='%s' kind='%s' box_id='%d' obj_id='%d' bad_id='%d'\00", align 1
@.str.20 = private unnamed_addr constant [7 x i8] c"unlock\00", align 1
@.str.21 = private unnamed_addr constant [5 x i8] c"lock\00", align 1
@.str.22 = private unnamed_addr constant [2 x i8] c"?\00", align 1
@.str.23 = private unnamed_addr constant [26 x i8] c"jvms bci='%d' method='%d'\00", align 1

; Function Attrs: mustprogress nounwind uwtable
define linkonce_odr hidden noundef ptr @_ZNK4Node2inEj(ptr noundef nonnull align 8 dereferenceable(52) %0, i32 noundef %1) #1 comdat align 2 {
  %3 = alloca ptr, align 8
  %4 = alloca i32, align 4
  store ptr %0, ptr %3, align 8
  store i32 %1, ptr %4, align 4
  %5 = load ptr, ptr %3, align 8
  %6 = getelementptr inbounds %class.Node, ptr %5, i32 0, i32 1
  %7 = load ptr, ptr %6, align 8
  %8 = load i32, ptr %4, align 4
  %9 = zext i32 %8 to i64
  %10 = getelementptr inbounds ptr, ptr %7, i64 %9
  %11 = load ptr, ptr %10, align 8
  ret ptr %11
}

; Function Attrs: mustprogress nounwind uwtable
define linkonce_odr hidden noundef ptr @_ZNK8JVMState6callerEv(ptr noundef nonnull align 8 dereferenceable(64) %0) #1 comdat align 2 {
  %2 = alloca ptr, align 8
  store ptr %0, ptr %2, align 8
  %3 = load ptr, ptr %2, align 8
  %4 = getelementptr inbounds %class.JVMState, ptr %3, i32 0, i32 0
  %5 = load ptr, ptr %4, align 8
  ret ptr %5
}

; Function Attrs: mustprogress nounwind uwtable
define linkonce_odr hidden noundef ptr @_ZNK8JVMState6methodEv(ptr noundef nonnull align 8 dereferenceable(64) %0) #1 comdat align 2 {
  %2 = alloca ptr, align 8
  store ptr %0, ptr %2, align 8
  %3 = load ptr, ptr %2, align 8
  %4 = getelementptr inbounds %class.JVMState, ptr %3, i32 0, i32 10
  %5 = load ptr, ptr %4, align 8
  ret ptr %5
}

; Function Attrs: mustprogress nounwind uwtable
define linkonce_odr hidden noundef i32 @_ZNK8JVMState3bciEv(ptr noundef nonnull align 8 dereferenceable(64) %0) #1 comdat align 2 {
  %2 = alloca ptr, align 8
  store ptr %0, ptr %2, align 8
  %3 = load ptr, ptr %2, align 8
  %4 = getelementptr inbounds %class.JVMState, ptr %3, i32 0, i32 8
  %5 = load i32, ptr %4, align 4
  ret i32 %5
}

; Function Attrs: mustprogress nounwind uwtable
define linkonce_odr hidden noundef ptr @_ZNK10UnlockNode8dbg_jvmsEv(ptr noundef nonnull align 8 dereferenceable(132) %0) #1 comdat align 2 {
  %2 = alloca ptr, align 8
  store ptr %0, ptr %2, align 8
  ret ptr null
}

; Function Attrs: mustprogress nounwind uwtable
define linkonce_odr hidden noundef ptr @_ZNK4Node9as_UnlockEv(ptr noundef nonnull align 8 dereferenceable(52) %0) #1 comdat align 2 {
  %2 = alloca ptr, align 8
  store ptr %0, ptr %2, align 8
  %3 = load ptr, ptr %2, align 8
  ret ptr %3
}

; Function Attrs: mustprogress nounwind uwtable
define hidden noundef ptr @_ZNK16AbstractLockNode14kind_as_stringEv(ptr noundef nonnull align 8 dereferenceable(132) %0) #1 align 2 {
  %2 = alloca ptr, align 8
  store ptr %0, ptr %2, align 8
  %3 = load ptr, ptr %2, align 8
  %4 = getelementptr inbounds %class.AbstractLockNode, ptr %3, i32 0, i32 1
  %5 = load i32, ptr %4, align 8
  %6 = zext i32 %5 to i64
  %7 = getelementptr inbounds [4 x ptr], ptr @_ZN16AbstractLockNode11_kind_namesE, i64 0, i64 %6
  %8 = load ptr, ptr %7, align 8
  ret ptr %8
}

; Function Attrs: mustprogress nounwind uwtable
define linkonce_odr hidden noundef zeroext i1 @_ZNK4Node7is_LockEv(ptr noundef nonnull align 8 dereferenceable(52) %0) #1 comdat align 2 {
  %2 = alloca ptr, align 8
  store ptr %0, ptr %2, align 8
  %3 = load ptr, ptr %2, align 8
  %4 = getelementptr inbounds %class.Node, ptr %3, i32 0, i32 8
  %5 = load i32, ptr %4, align 4
  %6 = and i32 %5, 255
  %7 = icmp eq i32 %6, 199
  ret i1 %7
}

; Function Attrs: mustprogress nounwind uwtable
define linkonce_odr hidden noundef zeroext i1 @_ZNK4Node9is_UnlockEv(ptr noundef nonnull align 8 dereferenceable(52) %0) #1 comdat align 2 {
  %2 = alloca ptr, align 8
  store ptr %0, ptr %2, align 8
  %3 = load ptr, ptr %2, align 8
  %4 = getelementptr inbounds %class.Node, ptr %3, i32 0, i32 8
  %5 = load i32, ptr %4, align 4
  %6 = and i32 %5, 511
  %7 = icmp eq i32 %6, 327
  ret i1 %7
}

; Function Attrs: mustprogress nounwind uwtable
define linkonce_odr hidden noundef i32 @_ZNK7Compile10compile_idEv(ptr noundef nonnull align 8 dereferenceable(2316) %0) #1 comdat align 2 {
  %2 = alloca ptr, align 8
  store ptr %0, ptr %2, align 8
  %3 = load ptr, ptr %2, align 8
  %4 = getelementptr inbounds %class.Compile, ptr %3, i32 0, i32 1
  %5 = load i32, ptr %4, align 8
  ret i32 %5
}

; Function Attrs: mustprogress nounwind uwtable
define linkonce_odr hidden noundef ptr @_ZNK16AbstractLockNode8obj_nodeEv(ptr noundef nonnull align 8 dereferenceable(132) %0) #1 comdat align 2 {
  %2 = alloca ptr, align 8
  store ptr %0, ptr %2, align 8
  %3 = load ptr, ptr %2, align 8
  %4 = call noundef ptr @_ZNK4Node2inEj(ptr noundef nonnull align 8 dereferenceable(52) %3, i32 noundef 5)
  ret ptr %4
}

; Function Attrs: mustprogress nounwind uwtable
define linkonce_odr hidden noundef ptr @_ZNK16AbstractLockNode8box_nodeEv(ptr noundef nonnull align 8 dereferenceable(132) %0) #1 comdat align 2 {
  %2 = alloca ptr, align 8
  store ptr %0, ptr %2, align 8
  %3 = load ptr, ptr %2, align 8
  %4 = call noundef ptr @_ZNK4Node2inEj(ptr noundef nonnull align 8 dereferenceable(52) %3, i32 noundef 6)
  ret ptr %4
}

; Function Attrs: mustprogress nounwind uwtable
define linkonce_odr hidden noundef ptr @_ZNK7Compile3logEv(ptr noundef nonnull align 8 dereferenceable(2316) %0) #1 comdat align 2 {
  %2 = alloca ptr, align 8
  store ptr %0, ptr %2, align 8
  %3 = load ptr, ptr %2, align 8
  %4 = getelementptr inbounds %class.Compile, ptr %3, i32 0, i32 59
  %5 = load ptr, ptr %4, align 8
  ret ptr %5
}

; Function Attrs: mustprogress nounwind uwtable
define hidden void @_ZNK16AbstractLockNode21log_lock_optimizationEP7CompilePKcP4Node(ptr noundef nonnull align 8 dereferenceable(132) %0, ptr noundef %1, ptr noundef %2, ptr noundef %3) #1 align 2 {
  %5 = alloca ptr, align 8
  %6 = alloca ptr, align 8
  %7 = alloca ptr, align 8
  %8 = alloca ptr, align 8
  %9 = alloca ptr, align 8
  %10 = alloca ptr, align 8
  %11 = alloca ptr, align 8
  %12 = alloca i32, align 4
  %13 = alloca i32, align 4
  %14 = alloca ptr, align 8
  store ptr %0, ptr %5, align 8
  store ptr %1, ptr %6, align 8
  store ptr %2, ptr %7, align 8
  store ptr %3, ptr %8, align 8
  %15 = load ptr, ptr %5, align 8
  %16 = load ptr, ptr %6, align 8
  %17 = icmp eq ptr %16, null
  br i1 %17, label %18, label %19

18:                                               ; preds = %4
  br label %99

19:                                               ; preds = %4
  %20 = load ptr, ptr %6, align 8
  %21 = call noundef ptr @_ZNK7Compile3logEv(ptr noundef nonnull align 8 dereferenceable(2316) %20)
  store ptr %21, ptr %9, align 8
  %22 = load ptr, ptr %9, align 8
  %23 = icmp ne ptr %22, null
  br i1 %23, label %24, label %99

24:                                               ; preds = %19
  %25 = call noundef ptr @_ZNK16AbstractLockNode8box_nodeEv(ptr noundef nonnull align 8 dereferenceable(132) %15)
  store ptr %25, ptr %10, align 8
  %26 = call noundef ptr @_ZNK16AbstractLockNode8obj_nodeEv(ptr noundef nonnull align 8 dereferenceable(132) %15)
  store ptr %26, ptr %11, align 8
  %27 = load ptr, ptr %10, align 8
  %28 = icmp ne ptr %27, null
  br i1 %28, label %29, label %33

29:                                               ; preds = %24
  %30 = load ptr, ptr %10, align 8
  %31 = getelementptr inbounds %class.Node, ptr %30, i32 0, i32 7
  %32 = load i32, ptr %31, align 8
  br label %34

33:                                               ; preds = %24
  br label %34

34:                                               ; preds = %33, %29
  %35 = phi i32 [ %32, %29 ], [ -1, %33 ]
  store i32 %35, ptr %12, align 4
  %36 = load ptr, ptr %11, align 8
  %37 = icmp ne ptr %36, null
  br i1 %37, label %38, label %42

38:                                               ; preds = %34
  %39 = load ptr, ptr %11, align 8
  %40 = getelementptr inbounds %class.Node, ptr %39, i32 0, i32 7
  %41 = load i32, ptr %40, align 8
  br label %43

42:                                               ; preds = %34
  br label %43

43:                                               ; preds = %42, %38
  %44 = phi i32 [ %41, %38 ], [ -1, %42 ]
  store i32 %44, ptr %13, align 4
  %45 = load ptr, ptr %9, align 8
  %46 = load ptr, ptr %7, align 8
  %47 = load ptr, ptr %6, align 8
  %48 = call noundef i32 @_ZNK7Compile10compile_idEv(ptr noundef nonnull align 8 dereferenceable(2316) %47)
  %49 = getelementptr inbounds %class.Node, ptr %15, i32 0, i32 7
  %50 = load i32, ptr %49, align 8
  %51 = call noundef zeroext i1 @_ZNK4Node9is_UnlockEv(ptr noundef nonnull align 8 dereferenceable(52) %15)
  br i1 %51, label %52, label %53

52:                                               ; preds = %43
  br label %56

53:                                               ; preds = %43
  %54 = call noundef zeroext i1 @_ZNK4Node7is_LockEv(ptr noundef nonnull align 8 dereferenceable(52) %15)
  %55 = select i1 %54, ptr @.str.21, ptr @.str.22
  br label %56

56:                                               ; preds = %53, %52
  %57 = phi ptr [ @.str.20, %52 ], [ %55, %53 ]
  %58 = call noundef ptr @_ZNK16AbstractLockNode14kind_as_stringEv(ptr noundef nonnull align 8 dereferenceable(132) %15)
  %59 = load i32, ptr %12, align 4
  %60 = load i32, ptr %13, align 4
  %61 = load ptr, ptr %8, align 8
  %62 = icmp ne ptr %61, null
  br i1 %62, label %63, label %67

63:                                               ; preds = %56
  %64 = load ptr, ptr %8, align 8
  %65 = getelementptr inbounds %class.Node, ptr %64, i32 0, i32 7
  %66 = load i32, ptr %65, align 8
  br label %68

67:                                               ; preds = %56
  br label %68

68:                                               ; preds = %67, %63
  %69 = phi i32 [ %66, %63 ], [ -1, %67 ]
  call void (ptr, ptr, ...) @_ZN9xmlStream10begin_headEPKcz(ptr noundef nonnull align 8 dereferenceable(152) %45, ptr noundef @.str.19, ptr noundef %46, i32 noundef %48, i32 noundef %50, ptr noundef %57, ptr noundef %58, i32 noundef %59, i32 noundef %60, i32 noundef %69)
  %70 = load ptr, ptr %9, align 8
  call void @_ZN9xmlStream5stampEv(ptr noundef nonnull align 8 dereferenceable(152) %70)
  %71 = load ptr, ptr %9, align 8
  call void @_ZN9xmlStream8end_headEv(ptr noundef nonnull align 8 dereferenceable(152) %71)
  %72 = call noundef zeroext i1 @_ZNK4Node9is_UnlockEv(ptr noundef nonnull align 8 dereferenceable(52) %15)
  br i1 %72, label %73, label %76

73:                                               ; preds = %68
  %74 = call noundef ptr @_ZNK4Node9as_UnlockEv(ptr noundef nonnull align 8 dereferenceable(52) %15)
  %75 = call noundef ptr @_ZNK10UnlockNode8dbg_jvmsEv(ptr noundef nonnull align 8 dereferenceable(132) %74)
  br label %81

76:                                               ; preds = %68
  %77 = load ptr, ptr %15, align 8
  %78 = getelementptr inbounds ptr, ptr %77, i64 18
  %79 = load ptr, ptr %78, align 8
  %80 = call noundef ptr %79(ptr noundef nonnull align 8 dereferenceable(81) %15)
  br label %81

81:                                               ; preds = %76, %73
  %82 = phi ptr [ %75, %73 ], [ %80, %76 ]
  store ptr %82, ptr %14, align 8
  br label %83

83:                                               ; preds = %86, %81
  %84 = load ptr, ptr %14, align 8
  %85 = icmp ne ptr %84, null
  br i1 %85, label %86, label %96

86:                                               ; preds = %83
  %87 = load ptr, ptr %9, align 8
  %88 = load ptr, ptr %14, align 8
  %89 = call noundef i32 @_ZNK8JVMState3bciEv(ptr noundef nonnull align 8 dereferenceable(64) %88)
  %90 = load ptr, ptr %9, align 8
  %91 = load ptr, ptr %14, align 8
  %92 = call noundef ptr @_ZNK8JVMState6methodEv(ptr noundef nonnull align 8 dereferenceable(64) %91)
  %93 = call noundef i32 @_ZN10CompileLog8identifyEP12ciBaseObject(ptr noundef nonnull align 8 dereferenceable(440) %90, ptr noundef %92)
  call void (ptr, ptr, ...) @_ZN9xmlStream4elemEPKcz(ptr noundef nonnull align 8 dereferenceable(152) %87, ptr noundef @.str.23, i32 noundef %89, i32 noundef %93)
  %94 = load ptr, ptr %14, align 8
  %95 = call noundef ptr @_ZNK8JVMState6callerEv(ptr noundef nonnull align 8 dereferenceable(64) %94)
  store ptr %95, ptr %14, align 8
  br label %83, !llvm.loop !34

96:                                               ; preds = %83
  %97 = load ptr, ptr %9, align 8
  %98 = load ptr, ptr %7, align 8
  call void @_ZN9xmlStream4tailEPKc(ptr noundef nonnull align 8 dereferenceable(152) %97, ptr noundef %98)
  br label %99

99:                                               ; preds = %96, %19, %18
  ret void
}