; Function Attrs: mustprogress nounwind uwtable
define hidden void @_ZNK16AbstractLockNode21log_lock_optimizationEP7CompilePKcP4Node(ptr noundef nonnull align 8 dereferenceable(132) %0, ptr noundef readonly %1, ptr noundef %2, ptr noundef readonly %3) local_unnamed_addr #2 align 2 {
  %5 = icmp eq ptr %1, null
  br i1 %5, label %62, label %6

6:                                                ; preds = %4
  %7 = getelementptr inbounds i8, ptr %1, i64 368
  %8 = load ptr, ptr %7, align 8
  %.not = icmp eq ptr %8, null
  br i1 %.not, label %62, label %9

9:                                                ; preds = %6
  %10 = getelementptr inbounds i8, ptr %0, i64 8
  %11 = load ptr, ptr %10, align 8
  %12 = getelementptr inbounds i8, ptr %11, i64 48
  %13 = load ptr, ptr %12, align 8
  %14 = getelementptr inbounds i8, ptr %11, i64 40
  %15 = load ptr, ptr %14, align 8
  %.not29 = icmp eq ptr %13, null
  br i1 %.not29, label %19, label %16

16:                                               ; preds = %9
  %17 = getelementptr inbounds i8, ptr %13, i64 40
  %18 = load i32, ptr %17, align 8
  br label %19

19:                                               ; preds = %9, %16
  %20 = phi i32 [ %18, %16 ], [ -1, %9 ]
  %.not30 = icmp eq ptr %15, null
  br i1 %.not30, label %24, label %21

21:                                               ; preds = %19
  %22 = getelementptr inbounds i8, ptr %15, i64 40
  %23 = load i32, ptr %22, align 8
  br label %24

24:                                               ; preds = %19, %21
  %25 = phi i32 [ %23, %21 ], [ -1, %19 ]
  %26 = getelementptr inbounds i8, ptr %1, i64 16
  %27 = load i32, ptr %26, align 8
  %28 = getelementptr inbounds i8, ptr %0, i64 40
  %29 = load i32, ptr %28, align 8
  %30 = getelementptr inbounds i8, ptr %0, i64 44
  %31 = load i32, ptr %30, align 4
  %32 = and i32 %31, 511
  %33 = icmp eq i32 %32, 327
  %34 = and i32 %31, 255
  %35 = icmp eq i32 %34, 199
  %36 = select i1 %35, ptr @.str.21, ptr @.str.22
  %37 = select i1 %33, ptr @.str.20, ptr %36
  %38 = getelementptr inbounds i8, ptr %0, i64 128
  %39 = load i32, ptr %38, align 8
  %40 = zext i32 %39 to i64
  %41 = getelementptr inbounds [4 x ptr], ptr @_ZN16AbstractLockNode11_kind_namesE, i64 0, i64 %40
  %42 = load ptr, ptr %41, align 8
  %.not31 = icmp eq ptr %3, null
  br i1 %.not31, label %46, label %43

43:                                               ; preds = %24
  %44 = getelementptr inbounds i8, ptr %3, i64 40
  %45 = load i32, ptr %44, align 8
  br label %46

46:                                               ; preds = %24, %43
  %47 = phi i32 [ %45, %43 ], [ -1, %24 ]
  tail call void (ptr, ptr, ...) @_ZN9xmlStream10begin_headEPKcz(ptr noundef nonnull align 8 dereferenceable(152) %8, ptr noundef nonnull @.str.19, ptr noundef %2, i32 noundef %27, i32 noundef %29, ptr noundef nonnull %37, ptr noundef %42, i32 noundef %20, i32 noundef %25, i32 noundef %47) #15
  tail call void @_ZN9xmlStream5stampEv(ptr noundef nonnull align 8 dereferenceable(152) %8) #15
  tail call void @_ZN9xmlStream8end_headEv(ptr noundef nonnull align 8 dereferenceable(152) %8) #15
  %48 = load i32, ptr %30, align 4
  %49 = and i32 %48, 511
  %50 = icmp eq i32 %49, 327
  br i1 %50, label %._crit_edge, label %51

51:                                               ; preds = %46
  %52 = load ptr, ptr %0, align 8
  %53 = getelementptr inbounds i8, ptr %52, i64 144
  %54 = load ptr, ptr %53, align 8
  %55 = tail call noundef ptr %54(ptr noundef nonnull align 8 dereferenceable(81) %0) #15
  %.not3233 = icmp eq ptr %55, null
  br i1 %.not3233, label %._crit_edge, label %.lr.ph

.lr.ph:                                           ; preds = %51, %.lr.ph
  %.034 = phi ptr [ %61, %.lr.ph ], [ %55, %51 ]
  %56 = getelementptr inbounds i8, ptr %.034, i64 36
  %57 = load i32, ptr %56, align 4
  %58 = getelementptr inbounds i8, ptr %.034, i64 48
  %59 = load ptr, ptr %58, align 8
  %60 = tail call noundef i32 @_ZN10CompileLog8identifyEP12ciBaseObject(ptr noundef nonnull align 8 dereferenceable(440) %8, ptr noundef %59) #15
  tail call void (ptr, ptr, ...) @_ZN9xmlStream4elemEPKcz(ptr noundef nonnull align 8 dereferenceable(152) %8, ptr noundef nonnull @.str.23, i32 noundef %57, i32 noundef %60) #15
  %61 = load ptr, ptr %.034, align 8
  %.not32 = icmp eq ptr %61, null
  br i1 %.not32, label %._crit_edge, label %.lr.ph, !llvm.loop !36

._crit_edge:                                      ; preds = %.lr.ph, %46, %51
  tail call void @_ZN9xmlStream4tailEPKc(ptr noundef nonnull align 8 dereferenceable(152) %8, ptr noundef %2) #15
  br label %62

62:                                               ; preds = %4, %._crit_edge, %6
  ret void
}